target datalayout = "e-m:e-p270:32:32-p271:32:32-p272:64:64-i64:64-i128:128-f80:128-n8:16:32:64-S128"
target triple = "x86_64-pc-linux-gnu"

%class.CProfileSample = type { i8 }

@.str.7 = private unnamed_addr constant [11 x i8] c"solveGroup\00", align 1

; Function Attrs: mustprogress uwtable
define dso_local noundef float @_ZN35btSequentialImpulseConstraintSolver10solveGroupEPP17btCollisionObjectiPP20btPersistentManifoldiPP17btTypedConstraintiRK19btContactSolverInfoP12btIDebugDrawP12btDispatcher(ptr noundef nonnull align 8 dereferenceable(408) %0, ptr noundef %1, i32 noundef %2, ptr noundef %3, i32 noundef %4, ptr noundef %5, i32 noundef %6, ptr noundef nonnull align 4 dereferenceable(128) %7, ptr noundef %8, ptr noundef %9) unnamed_addr #2 align 2 personality ptr @__gxx_personality_v0 {
  %11 = alloca ptr, align 8
  %12 = alloca ptr, align 8
  %13 = alloca i32, align 4
  %14 = alloca ptr, align 8
  %15 = alloca i32, align 4
  %16 = alloca ptr, align 8
  %17 = alloca i32, align 4
  %18 = alloca ptr, align 8
  %19 = alloca ptr, align 8
  %20 = alloca ptr, align 8
  %21 = alloca %class.CProfileSample, align 1
  %22 = alloca ptr, align 8
  %23 = alloca i32, align 4
  store ptr %0, ptr %11, align 8, !tbaa !12
  store ptr %1, ptr %12, align 8, !tbaa !198
  store i32 %2, ptr %13, align 4, !tbaa !9
  store ptr %3, ptr %14, align 8, !tbaa !152
  store i32 %4, ptr %15, align 4, !tbaa !9
  store ptr %5, ptr %16, align 8, !tbaa !187
  store i32 %6, ptr %17, align 4, !tbaa !9
  store ptr %7, ptr %18, align 8, !tbaa !106
  store ptr %8, ptr %19, align 8, !tbaa !207
  store ptr %9, ptr %20, align 8, !tbaa !241
  %24 = load ptr, ptr %11, align 8
  call void @llvm.lifetime.start.p0(i64 1, ptr %21) #15
  call void @_ZN14CProfileSampleC1EPKc(ptr noundef nonnull align 1 dereferenceable(1) %21, ptr noundef @.str.7)
  %25 = load ptr, ptr %12, align 8, !tbaa !198
  %26 = load i32, ptr %13, align 4, !tbaa !9
  %27 = load ptr, ptr %14, align 8, !tbaa !152
  %28 = load i32, ptr %15, align 4, !tbaa !9
  %29 = load ptr, ptr %16, align 8, !tbaa !187
  %30 = load i32, ptr %17, align 4, !tbaa !9
  %31 = load ptr, ptr %18, align 8, !tbaa !106
  %32 = load ptr, ptr %19, align 8, !tbaa !207
  %33 = load ptr, ptr %24, align 8, !tbaa !37
  %34 = getelementptr inbounds ptr, ptr %33, i64 13
  %35 = load ptr, ptr %34, align 8
  %36 = invoke noundef float %35(ptr noundef nonnull align 8 dereferenceable(408) %24, ptr noundef %25, i32 noundef %26, ptr noundef %27, i32 noundef %28, ptr noundef %29, i32 noundef %30, ptr noundef nonnull align 4 dereferenceable(128) %31, ptr noundef %32)
          to label %37 unwind label %59

37:                                               ; preds = %10
  %38 = load ptr, ptr %12, align 8, !tbaa !198
  %39 = load i32, ptr %13, align 4, !tbaa !9
  %40 = load ptr, ptr %14, align 8, !tbaa !152
  %41 = load i32, ptr %15, align 4, !tbaa !9
  %42 = load ptr, ptr %16, align 8, !tbaa !187
  %43 = load i32, ptr %17, align 4, !tbaa !9
  %44 = load ptr, ptr %18, align 8, !tbaa !106
  %45 = load ptr, ptr %19, align 8, !tbaa !207
  %46 = load ptr, ptr %24, align 8, !tbaa !37
  %47 = getelementptr inbounds ptr, ptr %46, i64 14
  %48 = load ptr, ptr %47, align 8
  %49 = invoke noundef float %48(ptr noundef nonnull align 8 dereferenceable(408) %24, ptr noundef %38, i32 noundef %39, ptr noundef %40, i32 noundef %41, ptr noundef %42, i32 noundef %43, ptr noundef nonnull align 4 dereferenceable(128) %44, ptr noundef %45)
          to label %50 unwind label %59

50:                                               ; preds = %37
  %51 = load ptr, ptr %12, align 8, !tbaa !198
  %52 = load i32, ptr %13, align 4, !tbaa !9
  %53 = load ptr, ptr %18, align 8, !tbaa !106
  %54 = load ptr, ptr %24, align 8, !tbaa !37
  %55 = getelementptr inbounds ptr, ptr %54, i64 11
  %56 = load ptr, ptr %55, align 8
  %57 = invoke noundef float %56(ptr noundef nonnull align 8 dereferenceable(408) %24, ptr noundef %51, i32 noundef %52, ptr noundef nonnull align 4 dereferenceable(128) %53)
          to label %58 unwind label %59

58:                                               ; preds = %50
  call void @_ZN14CProfileSampleD1Ev(ptr noundef nonnull align 1 dereferenceable(1) %21) #15
  call void @llvm.lifetime.end.p0(i64 1, ptr %21) #15
  ret float 0.000000e+00

59:                                               ; preds = %50, %37, %10
  %60 = landingpad { ptr, i32 }
          cleanup
  %61 = extractvalue { ptr, i32 } %60, 0
  store ptr %61, ptr %22, align 8
  %62 = extractvalue { ptr, i32 } %60, 1
  store i32 %62, ptr %23, align 4
  call void @_ZN14CProfileSampleD1Ev(ptr noundef nonnull align 1 dereferenceable(1) %21) #15
  call void @llvm.lifetime.end.p0(i64 1, ptr %21) #15
  br label %63

63:                                               ; preds = %59
  %64 = load ptr, ptr %22, align 8
  %65 = load i32, ptr %23, align 4
  %66 = insertvalue { ptr, i32 } poison, ptr %64, 0
  %67 = insertvalue { ptr, i32 } %66, i32 %65, 1
  resume { ptr, i32 } %67
}