; Function Attrs: mustprogress uwtable
define dso_local noundef float @_ZN35btSequentialImpulseConstraintSolver10solveGroupEPP17btCollisionObjectiPP20btPersistentManifoldiPP17btTypedConstraintiRK19btContactSolverInfoP12btIDebugDrawP12btDispatcher(ptr noundef nonnull align 8 dereferenceable(408) %0, ptr noundef %1, i32 noundef %2, ptr noundef %3, i32 noundef %4, ptr noundef %5, i32 noundef %6, ptr noundef nonnull align 4 dereferenceable(128) %7, ptr noundef %8, ptr readnone captures(none) %9) unnamed_addr #0 align 2 personality ptr @__gxx_personality_v0 {
  %11 = alloca %class.CProfileSample, align 1
  call void @llvm.lifetime.start.p0(i64 1, ptr nonnull %11) #23
  call void @_ZN14CProfileSampleC1EPKc(ptr noundef nonnull align 1 dereferenceable(1) %11, ptr noundef nonnull @.str.7)
  %12 = load ptr, ptr %0, align 8, !tbaa !29
  %13 = getelementptr inbounds nuw i8, ptr %12, i64 104
  %14 = load ptr, ptr %13, align 8
  %15 = invoke noundef float %14(ptr noundef nonnull align 8 dereferenceable(408) %0, ptr noundef %1, i32 noundef %2, ptr noundef %3, i32 noundef %4, ptr noundef %5, i32 noundef %6, ptr noundef nonnull align 4 dereferenceable(128) %7, ptr noundef %8)
          to label %16 unwind label %27

16:                                               ; preds = %10
  %17 = load ptr, ptr %0, align 8, !tbaa !29
  %18 = getelementptr inbounds nuw i8, ptr %17, i64 112
  %19 = load ptr, ptr %18, align 8
  %20 = invoke noundef float %19(ptr noundef nonnull align 8 dereferenceable(408) %0, ptr noundef %1, i32 noundef %2, ptr noundef %3, i32 noundef %4, ptr noundef %5, i32 noundef %6, ptr noundef nonnull align 4 dereferenceable(128) %7, ptr noundef %8)
          to label %21 unwind label %27

21:                                               ; preds = %16
  %22 = load ptr, ptr %0, align 8, !tbaa !29
  %23 = getelementptr inbounds nuw i8, ptr %22, i64 88
  %24 = load ptr, ptr %23, align 8
  %25 = invoke noundef float %24(ptr noundef nonnull align 8 dereferenceable(408) %0, ptr noundef %1, i32 noundef %2, ptr noundef nonnull align 4 dereferenceable(128) %7)
          to label %26 unwind label %27

26:                                               ; preds = %21
  call void @_ZN14CProfileSampleD1Ev(ptr noundef nonnull align 1 dereferenceable(1) %11) #23
  call void @llvm.lifetime.end.p0(i64 1, ptr nonnull %11) #23
  ret float 0.000000e+00

27:                                               ; preds = %21, %16, %10
  %28 = landingpad { ptr, i32 }
          cleanup
  call void @_ZN14CProfileSampleD1Ev(ptr noundef nonnull align 1 dereferenceable(1) %11) #23
  call void @llvm.lifetime.end.p0(i64 1, ptr nonnull %11) #23
  resume { ptr, i32 } %28
}